target datalayout = "e-m:e-p270:32:32-p271:32:32-p272:64:64-i64:64-i128:128-f80:128-n8:16:32:64-S128"
target triple = "x86_64-pc-linux-gnu"

%struct.RelationData = type { %struct.RelFileLocator, ptr, i32, i32, i8, i8, i8, i8, i8, i32, i32, i32, i32, ptr, ptr, i32, %struct.LockInfoData, ptr, ptr, ptr, ptr, ptr, i8, ptr, ptr, ptr, ptr, ptr, ptr, i32, ptr, i8, ptr, ptr, i32, i8, i32, ptr, i8, ptr, ptr, ptr, ptr, ptr, ptr, ptr, i32, ptr, ptr, ptr, ptr, ptr, ptr, ptr, ptr, ptr, ptr, ptr, ptr, ptr, ptr, ptr, ptr, ptr, ptr, ptr, i32, i8, ptr }
%struct.RelFileLocator = type { i32, i32, i32 }
%struct.LockInfoData = type { %struct.LockRelId }
%struct.LockRelId = type { i32, i32 }
%struct.FormData_pg_index = type { i32, i32, i16, i16, i8, i8, i8, i8, i8, i8, i8, i8, i8, i8, i8, %struct.int2vector }
%struct.int2vector = type { i32, i32, i32, i32, i32, i32, [0 x i16] }
%struct.TableAmRoutine = type { i32, ptr, ptr, ptr, ptr, ptr, ptr, ptr, ptr, ptr, ptr, ptr, ptr, ptr, ptr, ptr, ptr, ptr, ptr, ptr, ptr, ptr, ptr, ptr, ptr, ptr, ptr, ptr, ptr, ptr, ptr, ptr, ptr, ptr, ptr, ptr, ptr, ptr, ptr, ptr, ptr, ptr, ptr, ptr, ptr, ptr }
%struct.SysScanDescData = type { ptr, ptr, ptr, ptr, ptr, ptr }
%struct.ScanKeyData = type { i32, i16, i16, i32, i32, %struct.FmgrInfo, i64 }
%struct.FmgrInfo = type { ptr, i32, i16, i8, i8, i8, ptr, ptr, ptr }

@IgnoreSystemIndexes = external global i8, align 1
@.str.3 = private unnamed_addr constant [23 x i8] c"column is not in index\00", align 1
@.str.4 = private unnamed_addr constant [8 x i8] c"genam.c\00", align 1
@__func__.systable_beginscan = private unnamed_addr constant [19 x i8] c"systable_beginscan\00", align 1
@CheckXidAlive = external global i32, align 4
@bsysscan = external global i8, align 1

; Function Attrs: inlinehint nounwind uwtable
define internal ptr @table_beginscan_strat(ptr noundef %0, ptr noundef %1, i32 noundef %2, ptr noundef %3, i1 noundef zeroext %4, i1 noundef zeroext %5) #3 {
  %7 = alloca ptr, align 8
  %8 = alloca ptr, align 8
  %9 = alloca i32, align 4
  %10 = alloca ptr, align 8
  %11 = alloca i8, align 1
  %12 = alloca i8, align 1
  %13 = alloca i32, align 4
  store ptr %0, ptr %7, align 8
  store ptr %1, ptr %8, align 8
  store i32 %2, ptr %9, align 4
  store ptr %3, ptr %10, align 8
  %14 = zext i1 %4 to i8
  store i8 %14, ptr %11, align 1
  %15 = zext i1 %5 to i8
  store i8 %15, ptr %12, align 1
  call void @llvm.lifetime.start.p0(i64 4, ptr %13) #7
  store i32 257, ptr %13, align 4
  %16 = load i8, ptr %11, align 1, !range !4, !noundef !5
  %17 = trunc i8 %16 to i1
  br i1 %17, label %18, label %21

18:                                               ; preds = %6
  %19 = load i32, ptr %13, align 4
  %20 = or i32 %19, 64
  store i32 %20, ptr %13, align 4
  br label %21

21:                                               ; preds = %18, %6
  %22 = load i8, ptr %12, align 1, !range !4, !noundef !5
  %23 = trunc i8 %22 to i1
  br i1 %23, label %24, label %27

24:                                               ; preds = %21
  %25 = load i32, ptr %13, align 4
  %26 = or i32 %25, 128
  store i32 %26, ptr %13, align 4
  br label %27

27:                                               ; preds = %24, %21
  %28 = load ptr, ptr %7, align 8
  %29 = getelementptr inbounds nuw %struct.RelationData, ptr %28, i32 0, i32 47
  %30 = load ptr, ptr %29, align 8
  %31 = getelementptr inbounds nuw %struct.TableAmRoutine, ptr %30, i32 0, i32 2
  %32 = load ptr, ptr %31, align 8
  %33 = load ptr, ptr %7, align 8
  %34 = load ptr, ptr %8, align 8
  %35 = load i32, ptr %9, align 4
  %36 = load ptr, ptr %10, align 8
  %37 = load i32, ptr %13, align 4
  %38 = call ptr %32(ptr noundef %33, ptr noundef %34, i32 noundef %35, ptr noundef %36, ptr noundef null, i32 noundef %37)
  call void @llvm.lifetime.end.p0(i64 4, ptr %13) #7
  ret ptr %38
}

; Function Attrs: nounwind uwtable
define dso_local ptr @systable_beginscan(ptr noundef %0, i32 noundef %1, i1 noundef zeroext %2, ptr noundef %3, i32 noundef %4, ptr noundef %5) #0 {
  %7 = alloca ptr, align 8
  %8 = alloca i32, align 4
  %9 = alloca i8, align 1
  %10 = alloca ptr, align 8
  %11 = alloca i32, align 4
  %12 = alloca ptr, align 8
  %13 = alloca ptr, align 8
  %14 = alloca ptr, align 8
  %15 = alloca i32, align 4
  %16 = alloca i32, align 4
  %17 = alloca ptr, align 8
  %18 = alloca i32, align 4
  store ptr %0, ptr %7, align 8
  store i32 %1, ptr %8, align 4
  %19 = zext i1 %2 to i8
  store i8 %19, ptr %9, align 1
  store ptr %3, ptr %10, align 8
  store i32 %4, ptr %11, align 4
  store ptr %5, ptr %12, align 8
  call void @llvm.lifetime.start.p0(i64 8, ptr %13) #7
  call void @llvm.lifetime.start.p0(i64 8, ptr %14) #7
  %20 = load i8, ptr %9, align 1, !range !4, !noundef !5
  %21 = trunc i8 %20 to i1
  br i1 %21, label %22, label %31

22:                                               ; preds = %6
  %23 = load i8, ptr @IgnoreSystemIndexes, align 1, !range !4, !noundef !5
  %24 = trunc i8 %23 to i1
  br i1 %24, label %31, label %25

25:                                               ; preds = %22
  %26 = load i32, ptr %8, align 4
  %27 = call zeroext i1 @ReindexIsProcessingIndex(i32 noundef %26)
  br i1 %27, label %31, label %28

28:                                               ; preds = %25
  %29 = load i32, ptr %8, align 4
  %30 = call ptr @index_open(i32 noundef %29, i32 noundef 1)
  store ptr %30, ptr %14, align 8
  br label %32

31:                                               ; preds = %25, %22, %6
  store ptr null, ptr %14, align 8
  br label %32

32:                                               ; preds = %31, %28
  %33 = call ptr @palloc(i64 noundef 48)
  store ptr %33, ptr %13, align 8
  %34 = load ptr, ptr %7, align 8
  %35 = load ptr, ptr %13, align 8
  %36 = getelementptr inbounds nuw %struct.SysScanDescData, ptr %35, i32 0, i32 0
  store ptr %34, ptr %36, align 8
  %37 = load ptr, ptr %14, align 8
  %38 = load ptr, ptr %13, align 8
  %39 = getelementptr inbounds nuw %struct.SysScanDescData, ptr %38, i32 0, i32 1
  store ptr %37, ptr %39, align 8
  %40 = load ptr, ptr %7, align 8
  %41 = call ptr @table_slot_create(ptr noundef %40, ptr noundef null)
  %42 = load ptr, ptr %13, align 8
  %43 = getelementptr inbounds nuw %struct.SysScanDescData, ptr %42, i32 0, i32 5
  store ptr %41, ptr %43, align 8
  %44 = load ptr, ptr %10, align 8
  %45 = icmp eq ptr %44, null
  br i1 %45, label %46, label %56

46:                                               ; preds = %32
  call void @llvm.lifetime.start.p0(i64 4, ptr %15) #7
  %47 = load ptr, ptr %7, align 8
  %48 = getelementptr inbounds nuw %struct.RelationData, ptr %47, i32 0, i32 15
  %49 = load i32, ptr %48, align 8
  store i32 %49, ptr %15, align 4
  %50 = load i32, ptr %15, align 4
  %51 = call ptr @GetCatalogSnapshot(i32 noundef %50)
  %52 = call ptr @RegisterSnapshot(ptr noundef %51)
  store ptr %52, ptr %10, align 8
  %53 = load ptr, ptr %10, align 8
  %54 = load ptr, ptr %13, align 8
  %55 = getelementptr inbounds nuw %struct.SysScanDescData, ptr %54, i32 0, i32 4
  store ptr %53, ptr %55, align 8
  call void @llvm.lifetime.end.p0(i64 4, ptr %15) #7
  br label %59

56:                                               ; preds = %32
  %57 = load ptr, ptr %13, align 8
  %58 = getelementptr inbounds nuw %struct.SysScanDescData, ptr %57, i32 0, i32 4
  store ptr null, ptr %58, align 8
  br label %59

59:                                               ; preds = %56, %46
  %60 = load ptr, ptr %14, align 8
  %61 = icmp ne ptr %60, null
  br i1 %61, label %62, label %161

62:                                               ; preds = %59
  call void @llvm.lifetime.start.p0(i64 4, ptr %16) #7
  call void @llvm.lifetime.start.p0(i64 8, ptr %17) #7
  %63 = load i32, ptr %11, align 4
  %64 = sext i32 %63 to i64
  %65 = mul i64 72, %64
  %66 = call ptr @palloc(i64 noundef %65)
  store ptr %66, ptr %17, align 8
  store i32 0, ptr %16, align 4
  br label %67

67:                                               ; preds = %142, %62
  %68 = load i32, ptr %16, align 4
  %69 = load i32, ptr %11, align 4
  %70 = icmp slt i32 %68, %69
  br i1 %70, label %71, label %145

71:                                               ; preds = %67
  call void @llvm.lifetime.start.p0(i64 4, ptr %18) #7
  %72 = load ptr, ptr %17, align 8
  %73 = load i32, ptr %16, align 4
  %74 = sext i32 %73 to i64
  %75 = getelementptr inbounds %struct.ScanKeyData, ptr %72, i64 %74
  %76 = load ptr, ptr %12, align 8
  %77 = load i32, ptr %16, align 4
  %78 = sext i32 %77 to i64
  %79 = getelementptr inbounds %struct.ScanKeyData, ptr %76, i64 %78
  call void @llvm.memcpy.p0.p0.i64(ptr align 8 %75, ptr align 8 %79, i64 72, i1 false)
  store i32 0, ptr %18, align 4
  br label %80

80:                                               ; preds = %118, %71
  %81 = load i32, ptr %18, align 4
  %82 = load ptr, ptr %14, align 8
  %83 = getelementptr inbounds nuw %struct.RelationData, ptr %82, i32 0, i32 48
  %84 = load ptr, ptr %83, align 8
  %85 = getelementptr inbounds nuw %struct.FormData_pg_index, ptr %84, i32 0, i32 2
  %86 = load i16, ptr %85, align 4
  %87 = sext i16 %86 to i32
  %88 = icmp slt i32 %81, %87
  br i1 %88, label %89, label %121

89:                                               ; preds = %80
  %90 = load ptr, ptr %12, align 8
  %91 = load i32, ptr %16, align 4
  %92 = sext i32 %91 to i64
  %93 = getelementptr inbounds %struct.ScanKeyData, ptr %90, i64 %92
  %94 = getelementptr inbounds nuw %struct.ScanKeyData, ptr %93, i32 0, i32 1
  %95 = load i16, ptr %94, align 4
  %96 = sext i16 %95 to i32
  %97 = load ptr, ptr %14, align 8
  %98 = getelementptr inbounds nuw %struct.RelationData, ptr %97, i32 0, i32 48
  %99 = load ptr, ptr %98, align 8
  %100 = getelementptr inbounds nuw %struct.FormData_pg_index, ptr %99, i32 0, i32 15
  %101 = getelementptr inbounds nuw %struct.int2vector, ptr %100, i32 0, i32 6
  %102 = load i32, ptr %18, align 4
  %103 = sext i32 %102 to i64
  %104 = getelementptr inbounds [0 x i16], ptr %101, i64 0, i64 %103
  %105 = load i16, ptr %104, align 2
  %106 = sext i16 %105 to i32
  %107 = icmp eq i32 %96, %106
  br i1 %107, label %108, label %117

108:                                              ; preds = %89
  %109 = load i32, ptr %18, align 4
  %110 = add i32 %109, 1
  %111 = trunc i32 %110 to i16
  %112 = load ptr, ptr %17, align 8
  %113 = load i32, ptr %16, align 4
  %114 = sext i32 %113 to i64
  %115 = getelementptr inbounds %struct.ScanKeyData, ptr %112, i64 %114
  %116 = getelementptr inbounds nuw %struct.ScanKeyData, ptr %115, i32 0, i32 1
  store i16 %111, ptr %116, align 4
  br label %121

117:                                              ; preds = %89
  br label %118

118:                                              ; preds = %117
  %119 = load i32, ptr %18, align 4
  %120 = add i32 %119, 1
  store i32 %120, ptr %18, align 4
  br label %80, !llvm.loop !10

121:                                              ; preds = %108, %80
  %122 = load i32, ptr %18, align 4
  %123 = load ptr, ptr %14, align 8
  %124 = getelementptr inbounds nuw %struct.RelationData, ptr %123, i32 0, i32 48
  %125 = load ptr, ptr %124, align 8
  %126 = getelementptr inbounds nuw %struct.FormData_pg_index, ptr %125, i32 0, i32 2
  %127 = load i16, ptr %126, align 4
  %128 = sext i16 %127 to i32
  %129 = icmp eq i32 %122, %128
  br i1 %129, label %130, label %141

130:                                              ; preds = %121
  br label %131

131:                                              ; preds = %130
  br i1 true, label %132, label %134

132:                                              ; preds = %131
  %133 = call zeroext i1 @errstart_cold(i32 noundef 21, ptr noundef null) #8
  br i1 %133, label %136, label %138

134:                                              ; preds = %131
  %135 = call zeroext i1 @errstart(i32 noundef 21, ptr noundef null)
  br i1 %135, label %136, label %138

136:                                              ; preds = %134, %132
  %137 = call i32 (ptr, ...) @errmsg_internal(ptr noundef @.str.3)
  call void @errfinish(ptr noundef @.str.4, i32 noundef 445, ptr noundef @__func__.systable_beginscan)
  br label %138

138:                                              ; preds = %136, %134, %132
  unreachable

139:                                              ; No predecessors!
  br label %140

140:                                              ; preds = %139
  br label %141

141:                                              ; preds = %140, %121
  call void @llvm.lifetime.end.p0(i64 4, ptr %18) #7
  br label %142

142:                                              ; preds = %141
  %143 = load i32, ptr %16, align 4
  %144 = add i32 %143, 1
  store i32 %144, ptr %16, align 4
  br label %67, !llvm.loop !11

145:                                              ; preds = %67
  %146 = load ptr, ptr %7, align 8
  %147 = load ptr, ptr %14, align 8
  %148 = load ptr, ptr %10, align 8
  %149 = load i32, ptr %11, align 4
  %150 = call ptr @index_beginscan(ptr noundef %146, ptr noundef %147, ptr noundef %148, i32 noundef %149, i32 noundef 0)
  %151 = load ptr, ptr %13, align 8
  %152 = getelementptr inbounds nuw %struct.SysScanDescData, ptr %151, i32 0, i32 3
  store ptr %150, ptr %152, align 8
  %153 = load ptr, ptr %13, align 8
  %154 = getelementptr inbounds nuw %struct.SysScanDescData, ptr %153, i32 0, i32 3
  %155 = load ptr, ptr %154, align 8
  %156 = load ptr, ptr %17, align 8
  %157 = load i32, ptr %11, align 4
  call void @index_rescan(ptr noundef %155, ptr noundef %156, i32 noundef %157, ptr noundef null, i32 noundef 0)
  %158 = load ptr, ptr %13, align 8
  %159 = getelementptr inbounds nuw %struct.SysScanDescData, ptr %158, i32 0, i32 2
  store ptr null, ptr %159, align 8
  %160 = load ptr, ptr %17, align 8
  call void @pfree(ptr noundef %160)
  call void @llvm.lifetime.end.p0(i64 8, ptr %17) #7
  call void @llvm.lifetime.end.p0(i64 4, ptr %16) #7
  br label %171

161:                                              ; preds = %59
  %162 = load ptr, ptr %7, align 8
  %163 = load ptr, ptr %10, align 8
  %164 = load i32, ptr %11, align 4
  %165 = load ptr, ptr %12, align 8
  %166 = call ptr @table_beginscan_strat(ptr noundef %162, ptr noundef %163, i32 noundef %164, ptr noundef %165, i1 noundef zeroext true, i1 noundef zeroext false)
  %167 = load ptr, ptr %13, align 8
  %168 = getelementptr inbounds nuw %struct.SysScanDescData, ptr %167, i32 0, i32 2
  store ptr %166, ptr %168, align 8
  %169 = load ptr, ptr %13, align 8
  %170 = getelementptr inbounds nuw %struct.SysScanDescData, ptr %169, i32 0, i32 3
  store ptr null, ptr %170, align 8
  br label %171

171:                                              ; preds = %161, %145
  %172 = load i32, ptr @CheckXidAlive, align 4
  %173 = icmp ne i32 %172, 0
  br i1 %173, label %174, label %175

174:                                              ; preds = %171
  store i8 1, ptr @bsysscan, align 1
  br label %175

175:                                              ; preds = %174, %171
  %176 = load ptr, ptr %13, align 8
  call void @llvm.lifetime.end.p0(i64 8, ptr %14) #7
  call void @llvm.lifetime.end.p0(i64 8, ptr %13) #7
  ret ptr %176
}